target datalayout = "e-m:e-p270:32:32-p271:32:32-p272:64:64-i64:64-i128:128-f80:128-n8:16:32:64-S128"
target triple = "x86_64-pc-linux-gnu"

%"class.std::__cxx11::basic_string" = type { %"struct.std::__cxx11::basic_string<char>::_Alloc_hider", i64, %union.anon }
%"struct.std::__cxx11::basic_string<char>::_Alloc_hider" = type { ptr }
%union.anon = type { i64, [8 x i8] }
%"class.i18n::phonenumbers::AsYouTypeFormatter" = type { %"class.boost::scoped_ptr", %"class.i18n::phonenumbers::RegExpCache", %"class.std::__cxx11::basic_string", %"class.i18n::phonenumbers::UnicodeString", %"class.std::__cxx11::basic_string", %"class.i18n::phonenumbers::UnicodeString", %"class.i18n::phonenumbers::UnicodeString", i8, i8, i8, i8, ptr, %"class.std::__cxx11::basic_string", %"class.i18n::phonenumbers::PhoneMetadata", ptr, ptr, i32, i32, i32, %"class.std::__cxx11::basic_string", i8, %"class.std::__cxx11::basic_string", %"class.std::__cxx11::basic_string", %"class.std::__cxx11::list" }
%"class.boost::scoped_ptr" = type { ptr }
%"class.i18n::phonenumbers::RegExpCache" = type { ptr, %"class.boost::mutex", %"class.boost::scoped_ptr.1" }
%"class.boost::mutex" = type { %union.pthread_mutex_t }
%union.pthread_mutex_t = type { %struct.__pthread_mutex_s }
%struct.__pthread_mutex_s = type { i32, i32, i32, i32, i32, i16, i16, %struct.__pthread_internal_list }
%struct.__pthread_internal_list = type { ptr, ptr }
%"class.boost::scoped_ptr.1" = type { ptr }
%"class.i18n::phonenumbers::UnicodeString" = type <{ %"class.i18n::phonenumbers::UnicodeText", %"class.i18n::phonenumbers::UnicodeText::const_iterator", i32, [4 x i8] }>
%"class.i18n::phonenumbers::UnicodeText" = type { %"class.i18n::phonenumbers::UnicodeText::Repr" }
%"class.i18n::phonenumbers::UnicodeText::Repr" = type <{ ptr, i32, i32, i8, i8, [6 x i8] }>
%"class.i18n::phonenumbers::UnicodeText::const_iterator" = type { ptr }
%"class.i18n::phonenumbers::PhoneMetadata" = type <{ %"class.google::protobuf::MessageLite", %"class.google::protobuf::internal::HasBits", %"class.google::protobuf::internal::CachedSize", %"class.google::protobuf::RepeatedPtrField", %"class.google::protobuf::RepeatedPtrField", %"struct.google::protobuf::internal::ArenaStringPtr", %"struct.google::protobuf::internal::ArenaStringPtr", %"struct.google::protobuf::internal::ArenaStringPtr", %"struct.google::protobuf::internal::ArenaStringPtr", %"struct.google::protobuf::internal::ArenaStringPtr", %"struct.google::protobuf::internal::ArenaStringPtr", %"struct.google::protobuf::internal::ArenaStringPtr", %"struct.google::protobuf::internal::ArenaStringPtr", ptr, ptr, ptr, ptr, ptr, ptr, ptr, ptr, ptr, ptr, ptr, ptr, ptr, ptr, ptr, ptr, ptr, i32, i8, i8, i8, i8 }>
%"class.google::protobuf::MessageLite" = type { ptr, %"class.google::protobuf::internal::InternalMetadata" }
%"class.google::protobuf::internal::InternalMetadata" = type { ptr }
%"class.google::protobuf::internal::HasBits" = type { [1 x i32] }
%"class.google::protobuf::internal::CachedSize" = type { %"struct.std::atomic" }
%"struct.std::atomic" = type { %"struct.std::__atomic_base" }
%"struct.std::__atomic_base" = type { i32 }
%"class.google::protobuf::RepeatedPtrField" = type { %"class.google::protobuf::internal::RepeatedPtrFieldBase" }
%"class.google::protobuf::internal::RepeatedPtrFieldBase" = type { ptr, i32, i32, ptr }
%"struct.google::protobuf::internal::ArenaStringPtr" = type { ptr }
%"class.std::__cxx11::list" = type { %"class.std::__cxx11::_List_base" }
%"class.std::__cxx11::_List_base" = type { %"struct.std::__cxx11::_List_base<const i18n::phonenumbers::NumberFormat *, std::allocator<const i18n::phonenumbers::NumberFormat *>>::_List_impl" }
%"struct.std::__cxx11::_List_base<const i18n::phonenumbers::NumberFormat *, std::allocator<const i18n::phonenumbers::NumberFormat *>>::_List_impl" = type { %"struct.std::__detail::_List_node_header" }
%"struct.std::__detail::_List_node_header" = type { %"struct.std::__detail::_List_node_base", i64 }
%"struct.std::__detail::_List_node_base" = type { ptr, ptr }

; Function Attrs: mustprogress nounwind uwtable
define available_externally noundef ptr @_ZNKSt7__cxx1112basic_stringIcSt11char_traitsIcESaIcEE7_M_dataEv(ptr noundef nonnull align 8 dereferenceable(32) %0) #2 align 2 {
  %2 = alloca ptr, align 8
  store ptr %0, ptr %2, align 8, !tbaa !4
  %3 = load ptr, ptr %2, align 8
  %4 = getelementptr inbounds nuw %"class.std::__cxx11::basic_string", ptr %3, i32 0, i32 0
  %5 = getelementptr inbounds nuw %"struct.std::__cxx11::basic_string<char>::_Alloc_hider", ptr %4, i32 0, i32 0
  %6 = load ptr, ptr %5, align 8, !tbaa !179
  ret ptr %6
}

; Function Attrs: inlinehint mustprogress nounwind uwtable
define linkonce_odr dso_local noundef i32 @_ZNK4i18n12phonenumbers13PhoneMetadata22_internal_country_codeEv(ptr noundef nonnull align 8 dereferenceable(280) %0) #10 comdat align 2 {
  %2 = alloca ptr, align 8
  store ptr %0, ptr %2, align 8, !tbaa !73
  %3 = load ptr, ptr %2, align 8
  %4 = getelementptr inbounds nuw %"class.i18n::phonenumbers::PhoneMetadata", ptr %3, i32 0, i32 30
  %5 = load i32, ptr %4, align 8, !tbaa !186
  ret i32 %5
}

; Function Attrs: mustprogress nounwind uwtable
define available_externally noundef nonnull align 1 dereferenceable(1) ptr @_ZNKSt7__cxx1112basic_stringIcSt11char_traitsIcESaIcEEixEm(ptr noundef nonnull align 8 dereferenceable(32) %0, i64 noundef %1) #2 align 2 {
  %3 = alloca ptr, align 8
  %4 = alloca i64, align 8
  store ptr %0, ptr %3, align 8, !tbaa !4
  store i64 %1, ptr %4, align 8, !tbaa !127
  %5 = load ptr, ptr %3, align 8
  br label %6

6:                                                ; preds = %2
  br label %7

7:                                                ; preds = %6
  br label %8

8:                                                ; preds = %7
  %9 = call noundef ptr @_ZNKSt7__cxx1112basic_stringIcSt11char_traitsIcESaIcEE7_M_dataEv(ptr noundef nonnull align 8 dereferenceable(32) %5)
  %10 = load i64, ptr %4, align 8, !tbaa !127
  %11 = getelementptr inbounds nuw i8, ptr %9, i64 %10
  ret ptr %11
}

; Function Attrs: inlinehint mustprogress uwtable
define linkonce_odr dso_local noundef i32 @_ZNK4i18n12phonenumbers13PhoneMetadata12country_codeEv(ptr noundef nonnull align 8 dereferenceable(280) %0) #11 comdat align 2 {
  %2 = alloca ptr, align 8
  store ptr %0, ptr %2, align 8, !tbaa !73
  %3 = load ptr, ptr %2, align 8
  %4 = call noundef i32 @_ZNK4i18n12phonenumbers13PhoneMetadata22_internal_country_codeEv(ptr noundef nonnull align 8 dereferenceable(280) %3)
  ret i32 %4
}

; Function Attrs: mustprogress uwtable
define dso_local noundef zeroext i1 @_ZNK4i18n12phonenumbers18AsYouTypeFormatter31IsNanpaNumberWithNationalPrefixEv(ptr noundef nonnull align 8 dereferenceable(736) %0) #7 align 2 {
  %2 = alloca ptr, align 8
  store ptr %0, ptr %2, align 8, !tbaa !9
  %3 = load ptr, ptr %2, align 8
  %4 = getelementptr inbounds nuw %"class.i18n::phonenumbers::AsYouTypeFormatter", ptr %3, i32 0, i32 15
  %5 = load ptr, ptr %4, align 8, !tbaa !55
  %6 = call noundef i32 @_ZNK4i18n12phonenumbers13PhoneMetadata12country_codeEv(ptr noundef nonnull align 8 dereferenceable(280) %5)
  %7 = icmp eq i32 %6, 1
  br i1 %7, label %8, label %26

8:                                                ; preds = %1
  %9 = getelementptr inbounds nuw %"class.i18n::phonenumbers::AsYouTypeFormatter", ptr %3, i32 0, i32 22
  %10 = call noundef nonnull align 1 dereferenceable(1) ptr @_ZNKSt7__cxx1112basic_stringIcSt11char_traitsIcESaIcEEixEm(ptr noundef nonnull align 8 dereferenceable(32) %9, i64 noundef 0) #6
  %11 = load i8, ptr %10, align 1, !tbaa !128
  %12 = sext i8 %11 to i32
  %13 = icmp eq i32 %12, 49
  br i1 %13, label %14, label %26

14:                                               ; preds = %8
  %15 = getelementptr inbounds nuw %"class.i18n::phonenumbers::AsYouTypeFormatter", ptr %3, i32 0, i32 22
  %16 = call noundef nonnull align 1 dereferenceable(1) ptr @_ZNKSt7__cxx1112basic_stringIcSt11char_traitsIcESaIcEEixEm(ptr noundef nonnull align 8 dereferenceable(32) %15, i64 noundef 1) #6
  %17 = load i8, ptr %16, align 1, !tbaa !128
  %18 = sext i8 %17 to i32
  %19 = icmp ne i32 %18, 48
  br i1 %19, label %20, label %26

20:                                               ; preds = %14
  %21 = getelementptr inbounds nuw %"class.i18n::phonenumbers::AsYouTypeFormatter", ptr %3, i32 0, i32 22
  %22 = call noundef nonnull align 1 dereferenceable(1) ptr @_ZNKSt7__cxx1112basic_stringIcSt11char_traitsIcESaIcEEixEm(ptr noundef nonnull align 8 dereferenceable(32) %21, i64 noundef 1) #6
  %23 = load i8, ptr %22, align 1, !tbaa !128
  %24 = sext i8 %23 to i32
  %25 = icmp ne i32 %24, 49
  br label %26

26:                                               ; preds = %20, %14, %8, %1
  %27 = phi i1 [ false, %14 ], [ false, %8 ], [ false, %1 ], [ %25, %20 ]
  ret i1 %27
}