; Function Attrs: mustprogress nofree norecurse nosync nounwind willreturn memory(read, inaccessiblemem: none) uwtable
define dso_local noundef zeroext i1 @_ZNK4i18n12phonenumbers18AsYouTypeFormatter31IsNanpaNumberWithNationalPrefixEv(ptr noundef nonnull readonly align 8 captures(none) dereferenceable(736) %0) local_unnamed_addr #10 align 2 {
  %2 = getelementptr inbounds nuw i8, ptr %0, i64 584
  %3 = load ptr, ptr %2, align 8, !tbaa !61
  %4 = getelementptr inbounds nuw i8, ptr %3, i64 272
  %5 = load i32, ptr %4, align 8, !tbaa !98
  %6 = icmp eq i32 %5, 1
  br i1 %6, label %7, label %16

7:                                                ; preds = %1
  %8 = getelementptr inbounds nuw i8, ptr %0, i64 680
  %9 = load ptr, ptr %8, align 8, !tbaa !58
  %10 = load i8, ptr %9, align 1, !tbaa !18
  %11 = icmp eq i8 %10, 49
  br i1 %11, label %12, label %16

12:                                               ; preds = %7
  %13 = getelementptr inbounds nuw i8, ptr %9, i64 1
  %14 = load i8, ptr %13, align 1, !tbaa !18
  %15 = add i8 %14, -50
  %spec.select = icmp ult i8 %15, -2
  br label %16

16:                                               ; preds = %12, %7, %1
  %17 = phi i1 [ false, %7 ], [ false, %1 ], [ %spec.select, %12 ]
  ret i1 %17
}